target datalayout = "e-m:e-p270:32:32-p271:32:32-p272:64:64-i64:64-i128:128-f80:128-n8:16:32:64-S128"
target triple = "x86_64-unknown-linux-gnu"

%"class.icu_75::UnicodeSet" = type <{ %"class.icu_75::UnicodeFilter", ptr, i32, i32, i8, [7 x i8], ptr, ptr, i32, [4 x i8], ptr, i32, [4 x i8], ptr, ptr, [25 x i32], [4 x i8] }>
%"class.icu_75::UnicodeFilter" = type { %"class.icu_75::UnicodeFunctor", %"class.icu_75::UnicodeMatcher" }
%"class.icu_75::UnicodeFunctor" = type { %"class.icu_75::UObject" }
%"class.icu_75::UObject" = type { ptr }
%"class.icu_75::UnicodeMatcher" = type { ptr }
%"class.icu_75::UVector" = type { %"class.icu_75::UObject", i32, i32, ptr, ptr, ptr }

; Function Attrs: mustprogress nounwind uwtable
define linkonce_odr noundef signext i8 @_ZNK6icu_757UVector7isEmptyEv(ptr noundef nonnull align 8 dereferenceable(40) %this) #0 comdat align 2 {
entry:
  %this.addr = alloca ptr, align 8
  store ptr %this, ptr %this.addr, align 8
  %this1 = load ptr, ptr %this.addr, align 8
  %count = getelementptr inbounds %"class.icu_75::UVector", ptr %this1, i32 0, i32 1
  %0 = load i32, ptr %count, align 8
  %cmp = icmp eq i32 %0, 0
  %conv = zext i1 %cmp to i8
  ret i8 %conv
}

; Function Attrs: mustprogress uwtable
define void @_ZN6icu_7510UnicodeSet14releasePatternEv(ptr noundef nonnull align 8 dereferenceable(200) %this) #1 align 2 {
entry:
  %this.addr = alloca ptr, align 8
  store ptr %this, ptr %this.addr, align 8
  %this1 = load ptr, ptr %this.addr, align 8
  %pat = getelementptr inbounds %"class.icu_75::UnicodeSet", ptr %this1, i32 0, i32 10
  %0 = load ptr, ptr %pat, align 8
  %tobool = icmp ne ptr %0, null
  br i1 %tobool, label %if.then, label %if.end

if.then:                                          ; preds = %entry
  %pat2 = getelementptr inbounds %"class.icu_75::UnicodeSet", ptr %this1, i32 0, i32 10
  %1 = load ptr, ptr %pat2, align 8
  call void @uprv_free_75(ptr noundef %1)
  %pat3 = getelementptr inbounds %"class.icu_75::UnicodeSet", ptr %this1, i32 0, i32 10
  store ptr null, ptr %pat3, align 8
  %patLen = getelementptr inbounds %"class.icu_75::UnicodeSet", ptr %this1, i32 0, i32 11
  store i32 0, ptr %patLen, align 8
  br label %if.end

if.end:                                           ; preds = %if.then, %entry
  ret void
}

; Function Attrs: mustprogress uwtable
define noundef signext i8 @_ZNK6icu_7510UnicodeSet10hasStringsEv(ptr noundef nonnull align 8 dereferenceable(200) %this) #1 align 2 {
entry:
  %this.addr = alloca ptr, align 8
  store ptr %this, ptr %this.addr, align 8
  %this1 = load ptr, ptr %this.addr, align 8
  %strings = getelementptr inbounds %"class.icu_75::UnicodeSet", ptr %this1, i32 0, i32 13
  %0 = load ptr, ptr %strings, align 8
  %cmp = icmp ne ptr %0, null
  br i1 %cmp, label %land.rhs, label %land.end

land.rhs:                                         ; preds = %entry
  %strings2 = getelementptr inbounds %"class.icu_75::UnicodeSet", ptr %this1, i32 0, i32 13
  %1 = load ptr, ptr %strings2, align 8
  %call = call noundef signext i8 @_ZNK6icu_757UVector7isEmptyEv(ptr noundef nonnull align 8 dereferenceable(40) %1)
  %tobool = icmp ne i8 %call, 0
  %lnot = xor i1 %tobool, true
  br label %land.end

land.end:                                         ; preds = %land.rhs, %entry
  %2 = phi i1 [ false, %entry ], [ %lnot, %land.rhs ]
  %conv = zext i1 %2 to i8
  ret i8 %conv
}

; Function Attrs: mustprogress nounwind uwtable
define linkonce_odr noundef signext i8 @_ZNK6icu_7510UnicodeSet8isFrozenEv(ptr noundef nonnull align 8 dereferenceable(200) %this) #0 comdat align 2 {
entry:
  %this.addr = alloca ptr, align 8
  store ptr %this, ptr %this.addr, align 8
  %this1 = load ptr, ptr %this.addr, align 8
  %bmpSet = getelementptr inbounds %"class.icu_75::UnicodeSet", ptr %this1, i32 0, i32 6
  %0 = load ptr, ptr %bmpSet, align 8
  %cmp = icmp ne ptr %0, null
  br i1 %cmp, label %lor.end, label %lor.rhs

lor.rhs:                                          ; preds = %entry
  %stringSpan = getelementptr inbounds %"class.icu_75::UnicodeSet", ptr %this1, i32 0, i32 14
  %1 = load ptr, ptr %stringSpan, align 8
  %cmp2 = icmp ne ptr %1, null
  br label %lor.end

lor.end:                                          ; preds = %lor.rhs, %entry
  %2 = phi i1 [ true, %entry ], [ %cmp2, %lor.rhs ]
  %conv = zext i1 %2 to i8
  ret i8 %conv
}

; Function Attrs: mustprogress uwtable
define noundef nonnull align 8 dereferenceable(200) ptr @_ZN6icu_7510UnicodeSet16removeAllStringsEv(ptr noundef nonnull align 8 dereferenceable(200) %this) unnamed_addr #1 align 2 {
entry:
  %this.addr = alloca ptr, align 8
  store ptr %this, ptr %this.addr, align 8
  %this1 = load ptr, ptr %this.addr, align 8
  %call = call noundef signext i8 @_ZNK6icu_7510UnicodeSet8isFrozenEv(ptr noundef nonnull align 8 dereferenceable(200) %this1)
  %tobool = icmp ne i8 %call, 0
  br i1 %tobool, label %if.end, label %land.lhs.true

land.lhs.true:                                    ; preds = %entry
  %call2 = call noundef signext i8 @_ZNK6icu_7510UnicodeSet10hasStringsEv(ptr noundef nonnull align 8 dereferenceable(200) %this1)
  %tobool3 = icmp ne i8 %call2, 0
  br i1 %tobool3, label %if.then, label %if.end

if.then:                                          ; preds = %land.lhs.true
  %strings = getelementptr inbounds %"class.icu_75::UnicodeSet", ptr %this1, i32 0, i32 13
  %0 = load ptr, ptr %strings, align 8
  call void @_ZN6icu_757UVector17removeAllElementsEv(ptr noundef nonnull align 8 dereferenceable(40) %0)
  call void @_ZN6icu_7510UnicodeSet14releasePatternEv(ptr noundef nonnull align 8 dereferenceable(200) %this1)
  br label %if.end

if.end:                                           ; preds = %if.then, %land.lhs.true, %entry
  ret ptr %this1
}