; Function Attrs: mustprogress uwtable
define noundef nonnull align 8 dereferenceable(200) ptr @_ZN6icu_7510UnicodeSet16removeAllStringsEv(ptr noundef nonnull returned align 8 dereferenceable(200) %this) unnamed_addr #1 align 2 {
entry:
  %bmpSet.i = getelementptr inbounds i8, ptr %this, i64 40
  %0 = load ptr, ptr %bmpSet.i, align 8
  %cmp.not.i = icmp eq ptr %0, null
  %stringSpan.i = getelementptr inbounds i8, ptr %this, i64 88
  %1 = load ptr, ptr %stringSpan.i, align 8
  %cmp2.i = icmp eq ptr %1, null
  %narrow.i.not = select i1 %cmp.not.i, i1 %cmp2.i, i1 false
  br i1 %narrow.i.not, label %land.lhs.true, label %if.end

land.lhs.true:                                    ; preds = %entry
  %strings.i = getelementptr inbounds i8, ptr %this, i64 80
  %2 = load ptr, ptr %strings.i, align 8
  %cmp.not.i1 = icmp eq ptr %2, null
  br i1 %cmp.not.i1, label %if.end, label %_ZNK6icu_7510UnicodeSet10hasStringsEv.exit

_ZNK6icu_7510UnicodeSet10hasStringsEv.exit:       ; preds = %land.lhs.true
  %count.i.i = getelementptr inbounds i8, ptr %2, i64 8
  %3 = load i32, ptr %count.i.i, align 8
  %cmp.i.i.not = icmp eq i32 %3, 0
  br i1 %cmp.i.i.not, label %if.end, label %if.then

if.then:                                          ; preds = %_ZNK6icu_7510UnicodeSet10hasStringsEv.exit
  tail call void @_ZN6icu_757UVector17removeAllElementsEv(ptr noundef nonnull align 8 dereferenceable(40) %2)
  %pat.i = getelementptr inbounds i8, ptr %this, i64 64
  %4 = load ptr, ptr %pat.i, align 8
  %tobool.not.i = icmp eq ptr %4, null
  br i1 %tobool.not.i, label %if.end, label %if.then.i

if.then.i:                                        ; preds = %if.then
  tail call void @uprv_free_75(ptr noundef nonnull %4)
  store ptr null, ptr %pat.i, align 8
  %patLen.i = getelementptr inbounds i8, ptr %this, i64 72
  store i32 0, ptr %patLen.i, align 8
  br label %if.end

if.end:                                           ; preds = %land.lhs.true, %if.then.i, %if.then, %_ZNK6icu_7510UnicodeSet10hasStringsEv.exit, %entry
  ret ptr %this
}